target datalayout = "e-m:e-p270:32:32-p271:32:32-p272:64:64-i64:64-i128:128-f80:128-n8:16:32:64-S128"
target triple = "x86_64-pc-linux-gnu"

%class.b3Vector3 = type { %union.anon }
%union.anon = type { [4 x float] }
%struct.b3DynamicBvh = type { ptr, ptr, i32, i32, i32, [4 x i8], %class.b3AlignedObjectArray, %class.b3AlignedObjectArray.0 }
%class.b3AlignedObjectArray = type <{ [4 x i8], i32, i32, [4 x i8], ptr, i8, [7 x i8] }>
%class.b3AlignedObjectArray.0 = type <{ [4 x i8], i32, i32, [4 x i8], ptr, i8, [7 x i8] }>
%struct.b3DbvtNode = type { %struct.b3DbvtAabbMm, ptr, %union.anon.4, [8 x i8] }
%struct.b3DbvtAabbMm = type { %class.b3Vector3, %class.b3Vector3 }
%union.anon.4 = type { [2 x ptr] }

; Function Attrs: inlinehint mustprogress nounwind uwtable
define linkonce_odr dso_local void @_Z6b3SwapI12b3DbvtAabbMmEvRT_S2_(ptr noundef nonnull align 16 dereferenceable(32) %0, ptr noundef nonnull align 16 dereferenceable(32) %1) #6 comdat {
  %3 = alloca ptr, align 8
  %4 = alloca ptr, align 8
  %5 = alloca %struct.b3DbvtAabbMm, align 16
  store ptr %0, ptr %3, align 8, !tbaa !57
  store ptr %1, ptr %4, align 8, !tbaa !57
  call void @llvm.lifetime.start.p0(i64 32, ptr %5) #12
  %6 = load ptr, ptr %3, align 8, !tbaa !57
  call void @llvm.memcpy.p0.p0.i64(ptr align 16 %5, ptr align 16 %6, i64 32, i1 false), !tbaa.struct !60
  %7 = load ptr, ptr %4, align 8, !tbaa !57
  %8 = load ptr, ptr %3, align 8, !tbaa !57
  call void @llvm.memcpy.p0.p0.i64(ptr align 16 %8, ptr align 16 %7, i64 32, i1 false), !tbaa.struct !60
  %9 = load ptr, ptr %4, align 8, !tbaa !57
  call void @llvm.memcpy.p0.p0.i64(ptr align 16 %9, ptr align 16 %5, i64 32, i1 false), !tbaa.struct !60
  call void @llvm.lifetime.end.p0(i64 32, ptr %5) #12
  ret void
}

; Function Attrs: inlinehint mustprogress nounwind uwtable
define internal noundef i32 @_ZL9b3IndexOfPK10b3DbvtNode(ptr noundef %0) #6 {
  %2 = alloca ptr, align 8
  store ptr %0, ptr %2, align 8, !tbaa !28
  %3 = load ptr, ptr %2, align 8, !tbaa !28
  %4 = getelementptr inbounds nuw %struct.b3DbvtNode, ptr %3, i32 0, i32 1
  %5 = load ptr, ptr %4, align 16, !tbaa !45
  %6 = getelementptr inbounds nuw %struct.b3DbvtNode, ptr %5, i32 0, i32 2
  %7 = getelementptr inbounds [2 x ptr], ptr %6, i64 0, i64 1
  %8 = load ptr, ptr %7, align 8, !tbaa !29
  %9 = load ptr, ptr %2, align 8, !tbaa !28
  %10 = icmp eq ptr %8, %9
  %11 = zext i1 %10 to i32
  ret i32 %11
}

; Function Attrs: inlinehint mustprogress nounwind uwtable
define linkonce_odr dso_local noundef zeroext i1 @_ZNK10b3DbvtNode6isleafEv(ptr noundef nonnull align 16 dereferenceable(56) %0) #6 comdat align 2 {
  %2 = alloca ptr, align 8
  store ptr %0, ptr %2, align 8, !tbaa !28
  %3 = load ptr, ptr %2, align 8
  %4 = getelementptr inbounds nuw %struct.b3DbvtNode, ptr %3, i32 0, i32 2
  %5 = getelementptr inbounds [2 x ptr], ptr %4, i64 0, i64 1
  %6 = load ptr, ptr %5, align 8, !tbaa !29
  %7 = icmp eq ptr %6, null
  ret i1 %7
}

; Function Attrs: mustprogress uwtable
define dso_local void @_ZN12b3DynamicBvh6updateEP10b3DbvtNodei(ptr noundef nonnull align 8 dereferenceable(96) %0, ptr noundef %1, i32 noundef %2) #0 align 2 {
  %4 = alloca ptr, align 8
  %5 = alloca ptr, align 8
  %6 = alloca i32, align 4
  %7 = alloca ptr, align 8
  %8 = alloca i32, align 4
  store ptr %0, ptr %4, align 8, !tbaa !4
  store ptr %1, ptr %5, align 8, !tbaa !28
  store i32 %2, ptr %6, align 4, !tbaa !32
  %9 = load ptr, ptr %4, align 8
  call void @llvm.lifetime.start.p0(i64 8, ptr %7) #12
  %10 = load ptr, ptr %5, align 8, !tbaa !28
  %11 = call noundef ptr @_ZL12b3RemoveLeafP12b3DynamicBvhP10b3DbvtNode(ptr noundef %9, ptr noundef %10)
  store ptr %11, ptr %7, align 8, !tbaa !28
  %12 = load ptr, ptr %7, align 8, !tbaa !28
  %13 = icmp ne ptr %12, null
  br i1 %13, label %14, label %42

14:                                               ; preds = %3
  %15 = load i32, ptr %6, align 4, !tbaa !32
  %16 = icmp sge i32 %15, 0
  br i1 %16, label %17, label %38

17:                                               ; preds = %14
  call void @llvm.lifetime.start.p0(i64 4, ptr %8) #12
  store i32 0, ptr %8, align 4, !tbaa !32
  br label %18

18:                                               ; preds = %34, %17
  %19 = load i32, ptr %8, align 4, !tbaa !32
  %20 = load i32, ptr %6, align 4, !tbaa !32
  %21 = icmp slt i32 %19, %20
  br i1 %21, label %22, label %27

22:                                               ; preds = %18
  %23 = load ptr, ptr %7, align 8, !tbaa !28
  %24 = getelementptr inbounds nuw %struct.b3DbvtNode, ptr %23, i32 0, i32 1
  %25 = load ptr, ptr %24, align 16, !tbaa !45
  %26 = icmp ne ptr %25, null
  br label %27

27:                                               ; preds = %22, %18
  %28 = phi i1 [ false, %18 ], [ %26, %22 ]
  br i1 %28, label %30, label %29

29:                                               ; preds = %27
  call void @llvm.lifetime.end.p0(i64 4, ptr %8) #12
  br label %37

30:                                               ; preds = %27
  %31 = load ptr, ptr %7, align 8, !tbaa !28
  %32 = getelementptr inbounds nuw %struct.b3DbvtNode, ptr %31, i32 0, i32 1
  %33 = load ptr, ptr %32, align 16, !tbaa !45
  store ptr %33, ptr %7, align 8, !tbaa !28
  br label %34

34:                                               ; preds = %30
  %35 = load i32, ptr %8, align 4, !tbaa !32
  %36 = add nsw i32 %35, 1
  store i32 %36, ptr %8, align 4, !tbaa !32
  br label %18, !llvm.loop !56

37:                                               ; preds = %29
  br label %41

38:                                               ; preds = %14
  %39 = getelementptr inbounds nuw %struct.b3DynamicBvh, ptr %9, i32 0, i32 0
  %40 = load ptr, ptr %39, align 8, !tbaa !9
  store ptr %40, ptr %7, align 8, !tbaa !28
  br label %41

41:                                               ; preds = %38, %37
  br label %42

42:                                               ; preds = %41, %3
  %43 = load ptr, ptr %7, align 8, !tbaa !28
  %44 = load ptr, ptr %5, align 8, !tbaa !28
  call void @_ZL12b3InsertLeafP12b3DynamicBvhP10b3DbvtNodeS2_(ptr noundef %9, ptr noundef %43, ptr noundef %44)
  call void @llvm.lifetime.end.p0(i64 8, ptr %7) #12
  ret void
}

; Function Attrs: inlinehint mustprogress uwtable
define internal noundef ptr @_ZL6b3SortP10b3DbvtNodeRS0_(ptr noundef %0, ptr noundef nonnull align 8 dereferenceable(8) %1) #4 {
  %3 = alloca ptr, align 8
  %4 = alloca ptr, align 8
  %5 = alloca ptr, align 8
  %6 = alloca ptr, align 8
  %7 = alloca i32, align 4
  %8 = alloca i32, align 4
  %9 = alloca ptr, align 8
  %10 = alloca ptr, align 8
  %11 = alloca i32, align 4
  store ptr %0, ptr %4, align 8, !tbaa !28
  store ptr %1, ptr %5, align 8, !tbaa !33
  call void @llvm.lifetime.start.p0(i64 8, ptr %6) #12
  %12 = load ptr, ptr %4, align 8, !tbaa !28
  %13 = getelementptr inbounds nuw %struct.b3DbvtNode, ptr %12, i32 0, i32 1
  %14 = load ptr, ptr %13, align 16, !tbaa !45
  store ptr %14, ptr %6, align 8, !tbaa !28
  %15 = load ptr, ptr %6, align 8, !tbaa !28
  %16 = load ptr, ptr %4, align 8, !tbaa !28
  %17 = icmp ugt ptr %15, %16
  br i1 %17, label %18, label %98

18:                                               ; preds = %2
  call void @llvm.lifetime.start.p0(i64 4, ptr %7) #12
  %19 = load ptr, ptr %4, align 8, !tbaa !28
  %20 = call noundef i32 @_ZL9b3IndexOfPK10b3DbvtNode(ptr noundef %19)
  store i32 %20, ptr %7, align 4, !tbaa !32
  call void @llvm.lifetime.start.p0(i64 4, ptr %8) #12
  %21 = load i32, ptr %7, align 4, !tbaa !32
  %22 = sub nsw i32 1, %21
  store i32 %22, ptr %8, align 4, !tbaa !32
  call void @llvm.lifetime.start.p0(i64 8, ptr %9) #12
  %23 = load ptr, ptr %6, align 8, !tbaa !28
  %24 = getelementptr inbounds nuw %struct.b3DbvtNode, ptr %23, i32 0, i32 2
  %25 = load i32, ptr %8, align 4, !tbaa !32
  %26 = sext i32 %25 to i64
  %27 = getelementptr inbounds [2 x ptr], ptr %24, i64 0, i64 %26
  %28 = load ptr, ptr %27, align 8, !tbaa !29
  store ptr %28, ptr %9, align 8, !tbaa !28
  call void @llvm.lifetime.start.p0(i64 8, ptr %10) #12
  %29 = load ptr, ptr %6, align 8, !tbaa !28
  %30 = getelementptr inbounds nuw %struct.b3DbvtNode, ptr %29, i32 0, i32 1
  %31 = load ptr, ptr %30, align 16, !tbaa !45
  store ptr %31, ptr %10, align 8, !tbaa !28
  %32 = load ptr, ptr %10, align 8, !tbaa !28
  %33 = icmp ne ptr %32, null
  br i1 %33, label %34, label %42

34:                                               ; preds = %18
  %35 = load ptr, ptr %4, align 8, !tbaa !28
  %36 = load ptr, ptr %10, align 8, !tbaa !28
  %37 = getelementptr inbounds nuw %struct.b3DbvtNode, ptr %36, i32 0, i32 2
  %38 = load ptr, ptr %6, align 8, !tbaa !28
  %39 = call noundef i32 @_ZL9b3IndexOfPK10b3DbvtNode(ptr noundef %38)
  %40 = sext i32 %39 to i64
  %41 = getelementptr inbounds [2 x ptr], ptr %37, i64 0, i64 %40
  store ptr %35, ptr %41, align 8, !tbaa !29
  br label %45

42:                                               ; preds = %18
  %43 = load ptr, ptr %4, align 8, !tbaa !28
  %44 = load ptr, ptr %5, align 8, !tbaa !33
  store ptr %43, ptr %44, align 8, !tbaa !28
  br label %45

45:                                               ; preds = %42, %34
  %46 = load ptr, ptr %4, align 8, !tbaa !28
  %47 = load ptr, ptr %9, align 8, !tbaa !28
  %48 = getelementptr inbounds nuw %struct.b3DbvtNode, ptr %47, i32 0, i32 1
  store ptr %46, ptr %48, align 16, !tbaa !45
  %49 = load ptr, ptr %4, align 8, !tbaa !28
  %50 = load ptr, ptr %6, align 8, !tbaa !28
  %51 = getelementptr inbounds nuw %struct.b3DbvtNode, ptr %50, i32 0, i32 1
  store ptr %49, ptr %51, align 16, !tbaa !45
  %52 = load ptr, ptr %10, align 8, !tbaa !28
  %53 = load ptr, ptr %4, align 8, !tbaa !28
  %54 = getelementptr inbounds nuw %struct.b3DbvtNode, ptr %53, i32 0, i32 1
  store ptr %52, ptr %54, align 16, !tbaa !45
  %55 = load ptr, ptr %4, align 8, !tbaa !28
  %56 = getelementptr inbounds nuw %struct.b3DbvtNode, ptr %55, i32 0, i32 2
  %57 = getelementptr inbounds [2 x ptr], ptr %56, i64 0, i64 0
  %58 = load ptr, ptr %57, align 8, !tbaa !29
  %59 = load ptr, ptr %6, align 8, !tbaa !28
  %60 = getelementptr inbounds nuw %struct.b3DbvtNode, ptr %59, i32 0, i32 2
  %61 = getelementptr inbounds [2 x ptr], ptr %60, i64 0, i64 0
  store ptr %58, ptr %61, align 8, !tbaa !29
  %62 = load ptr, ptr %4, align 8, !tbaa !28
  %63 = getelementptr inbounds nuw %struct.b3DbvtNode, ptr %62, i32 0, i32 2
  %64 = getelementptr inbounds [2 x ptr], ptr %63, i64 0, i64 1
  %65 = load ptr, ptr %64, align 8, !tbaa !29
  %66 = load ptr, ptr %6, align 8, !tbaa !28
  %67 = getelementptr inbounds nuw %struct.b3DbvtNode, ptr %66, i32 0, i32 2
  %68 = getelementptr inbounds [2 x ptr], ptr %67, i64 0, i64 1
  store ptr %65, ptr %68, align 8, !tbaa !29
  %69 = load ptr, ptr %6, align 8, !tbaa !28
  %70 = load ptr, ptr %4, align 8, !tbaa !28
  %71 = getelementptr inbounds nuw %struct.b3DbvtNode, ptr %70, i32 0, i32 2
  %72 = getelementptr inbounds [2 x ptr], ptr %71, i64 0, i64 0
  %73 = load ptr, ptr %72, align 8, !tbaa !29
  %74 = getelementptr inbounds nuw %struct.b3DbvtNode, ptr %73, i32 0, i32 1
  store ptr %69, ptr %74, align 16, !tbaa !45
  %75 = load ptr, ptr %6, align 8, !tbaa !28
  %76 = load ptr, ptr %4, align 8, !tbaa !28
  %77 = getelementptr inbounds nuw %struct.b3DbvtNode, ptr %76, i32 0, i32 2
  %78 = getelementptr inbounds [2 x ptr], ptr %77, i64 0, i64 1
  %79 = load ptr, ptr %78, align 8, !tbaa !29
  %80 = getelementptr inbounds nuw %struct.b3DbvtNode, ptr %79, i32 0, i32 1
  store ptr %75, ptr %80, align 16, !tbaa !45
  %81 = load ptr, ptr %6, align 8, !tbaa !28
  %82 = load ptr, ptr %4, align 8, !tbaa !28
  %83 = getelementptr inbounds nuw %struct.b3DbvtNode, ptr %82, i32 0, i32 2
  %84 = load i32, ptr %7, align 4, !tbaa !32
  %85 = sext i32 %84 to i64
  %86 = getelementptr inbounds [2 x ptr], ptr %83, i64 0, i64 %85
  store ptr %81, ptr %86, align 8, !tbaa !29
  %87 = load ptr, ptr %9, align 8, !tbaa !28
  %88 = load ptr, ptr %4, align 8, !tbaa !28
  %89 = getelementptr inbounds nuw %struct.b3DbvtNode, ptr %88, i32 0, i32 2
  %90 = load i32, ptr %8, align 4, !tbaa !32
  %91 = sext i32 %90 to i64
  %92 = getelementptr inbounds [2 x ptr], ptr %89, i64 0, i64 %91
  store ptr %87, ptr %92, align 8, !tbaa !29
  %93 = load ptr, ptr %6, align 8, !tbaa !28
  %94 = getelementptr inbounds nuw %struct.b3DbvtNode, ptr %93, i32 0, i32 0
  %95 = load ptr, ptr %4, align 8, !tbaa !28
  %96 = getelementptr inbounds nuw %struct.b3DbvtNode, ptr %95, i32 0, i32 0
  call void @_Z6b3SwapI12b3DbvtAabbMmEvRT_S2_(ptr noundef nonnull align 16 dereferenceable(32) %94, ptr noundef nonnull align 16 dereferenceable(32) %96)
  %97 = load ptr, ptr %6, align 8, !tbaa !28
  store ptr %97, ptr %3, align 8
  store i32 1, ptr %11, align 4
  call void @llvm.lifetime.end.p0(i64 8, ptr %10) #12
  call void @llvm.lifetime.end.p0(i64 8, ptr %9) #12
  call void @llvm.lifetime.end.p0(i64 4, ptr %8) #12
  call void @llvm.lifetime.end.p0(i64 4, ptr %7) #12
  br label %100

98:                                               ; preds = %2
  %99 = load ptr, ptr %4, align 8, !tbaa !28
  store ptr %99, ptr %3, align 8
  store i32 1, ptr %11, align 4
  br label %100

100:                                              ; preds = %98, %45
  call void @llvm.lifetime.end.p0(i64 8, ptr %6) #12
  %101 = load ptr, ptr %3, align 8
  ret ptr %101
}

; Function Attrs: inlinehint mustprogress nounwind uwtable
define linkonce_odr dso_local noundef zeroext i1 @_ZNK10b3DbvtNode10isinternalEv(ptr noundef nonnull align 16 dereferenceable(56) %0) #6 comdat align 2 {
  %2 = alloca ptr, align 8
  store ptr %0, ptr %2, align 8, !tbaa !28
  %3 = load ptr, ptr %2, align 8
  %4 = call noundef zeroext i1 @_ZNK10b3DbvtNode6isleafEv(ptr noundef nonnull align 16 dereferenceable(56) %3)
  %5 = xor i1 %4, true
  ret i1 %5
}

; Function Attrs: mustprogress uwtable
define dso_local void @_ZN12b3DynamicBvh19optimizeIncrementalEi(ptr noundef nonnull align 8 dereferenceable(96) %0, i32 noundef %1) #0 align 2 {
  %3 = alloca ptr, align 8
  %4 = alloca i32, align 4
  %5 = alloca ptr, align 8
  %6 = alloca i32, align 4
  store ptr %0, ptr %3, align 8, !tbaa !4
  store i32 %1, ptr %4, align 4, !tbaa !32
  %7 = load ptr, ptr %3, align 8
  %8 = load i32, ptr %4, align 4, !tbaa !32
  %9 = icmp slt i32 %8, 0
  br i1 %9, label %10, label %13

10:                                               ; preds = %2
  %11 = getelementptr inbounds nuw %struct.b3DynamicBvh, ptr %7, i32 0, i32 3
  %12 = load i32, ptr %11, align 4, !tbaa !22
  store i32 %12, ptr %4, align 4, !tbaa !32
  br label %13

13:                                               ; preds = %10, %2
  %14 = getelementptr inbounds nuw %struct.b3DynamicBvh, ptr %7, i32 0, i32 0
  %15 = load ptr, ptr %14, align 8, !tbaa !9
  %16 = icmp ne ptr %15, null
  br i1 %16, label %17, label %55

17:                                               ; preds = %13
  %18 = load i32, ptr %4, align 4, !tbaa !32
  %19 = icmp sgt i32 %18, 0
  br i1 %19, label %20, label %55

20:                                               ; preds = %17
  br label %21

21:                                               ; preds = %50, %20
  call void @llvm.lifetime.start.p0(i64 8, ptr %5) #12
  %22 = getelementptr inbounds nuw %struct.b3DynamicBvh, ptr %7, i32 0, i32 0
  %23 = load ptr, ptr %22, align 8, !tbaa !9
  store ptr %23, ptr %5, align 8, !tbaa !28
  call void @llvm.lifetime.start.p0(i64 4, ptr %6) #12
  store i32 0, ptr %6, align 4, !tbaa !32
  br label %24

24:                                               ; preds = %27, %21
  %25 = load ptr, ptr %5, align 8, !tbaa !28
  %26 = call noundef zeroext i1 @_ZNK10b3DbvtNode10isinternalEv(ptr noundef nonnull align 16 dereferenceable(56) %25)
  br i1 %26, label %27, label %45

27:                                               ; preds = %24
  %28 = load ptr, ptr %5, align 8, !tbaa !28
  %29 = getelementptr inbounds nuw %struct.b3DynamicBvh, ptr %7, i32 0, i32 0
  %30 = call noundef ptr @_ZL6b3SortP10b3DbvtNodeRS0_(ptr noundef %28, ptr noundef nonnull align 8 dereferenceable(8) %29)
  %31 = getelementptr inbounds nuw %struct.b3DbvtNode, ptr %30, i32 0, i32 2
  %32 = getelementptr inbounds nuw %struct.b3DynamicBvh, ptr %7, i32 0, i32 4
  %33 = load i32, ptr %32, align 8, !tbaa !23
  %34 = load i32, ptr %6, align 4, !tbaa !32
  %35 = lshr i32 %33, %34
  %36 = and i32 %35, 1
  %37 = zext i32 %36 to i64
  %38 = getelementptr inbounds nuw [2 x ptr], ptr %31, i64 0, i64 %37
  %39 = load ptr, ptr %38, align 8, !tbaa !29
  store ptr %39, ptr %5, align 8, !tbaa !28
  %40 = load i32, ptr %6, align 4, !tbaa !32
  %41 = add i32 %40, 1
  %42 = zext i32 %41 to i64
  %43 = and i64 %42, 31
  %44 = trunc i64 %43 to i32
  store i32 %44, ptr %6, align 4, !tbaa !32
  br label %24, !llvm.loop !54

45:                                               ; preds = %24
  %46 = load ptr, ptr %5, align 8, !tbaa !28
  call void @_ZN12b3DynamicBvh6updateEP10b3DbvtNodei(ptr noundef nonnull align 8 dereferenceable(96) %7, ptr noundef %46, i32 noundef -1)
  %47 = getelementptr inbounds nuw %struct.b3DynamicBvh, ptr %7, i32 0, i32 4
  %48 = load i32, ptr %47, align 8, !tbaa !23
  %49 = add i32 %48, 1
  store i32 %49, ptr %47, align 8, !tbaa !23
  call void @llvm.lifetime.end.p0(i64 4, ptr %6) #12
  call void @llvm.lifetime.end.p0(i64 8, ptr %5) #12
  br label %50

50:                                               ; preds = %45
  %51 = load i32, ptr %4, align 4, !tbaa !32
  %52 = add nsw i32 %51, -1
  store i32 %52, ptr %4, align 4, !tbaa !32
  %53 = icmp ne i32 %52, 0
  br i1 %53, label %21, label %54, !llvm.loop !55

54:                                               ; preds = %50
  br label %55

55:                                               ; preds = %54, %17, %13
  ret void
}