; Function Attrs: mustprogress uwtable
define dso_local void @_ZN12b3DynamicBvh19optimizeIncrementalEi(ptr noundef nonnull align 8 captures(none) dereferenceable(96) %0, i32 noundef %1) local_unnamed_addr #2 align 2 {
  %3 = alloca %struct.b3DbvtAabbMm, align 16
  %4 = icmp slt i32 %1, 0
  %5 = getelementptr inbounds nuw i8, ptr %0, i64 20
  %6 = load i32, ptr %5, align 4
  %.010 = select i1 %4, i32 %6, i32 %1
  %7 = load ptr, ptr %0, align 8, !tbaa !28
  %8 = icmp ne ptr %7, null
  %9 = icmp sgt i32 %.010, 0
  %or.cond = select i1 %8, i1 %9, i1 false
  br i1 %or.cond, label %.preheader, label %.loopexit

.preheader:                                       ; preds = %2
  %10 = getelementptr inbounds nuw i8, ptr %0, i64 24
  br label %11

11:                                               ; preds = %.preheader, %_ZN12b3DynamicBvh6updateEP10b3DbvtNodei.exit
  %.1 = phi i32 [ %63, %_ZN12b3DynamicBvh6updateEP10b3DbvtNodei.exit ], [ %.010, %.preheader ]
  %.0915 = load ptr, ptr %0, align 8, !tbaa !32
  %12 = getelementptr inbounds nuw i8, ptr %.0915, i64 48
  %13 = load ptr, ptr %12, align 8, !tbaa !32
  %.not1416 = icmp eq ptr %13, null
  br i1 %.not1416, label %_ZN12b3DynamicBvh6updateEP10b3DbvtNodei.exit, label %.lr.ph

.lr.ph:                                           ; preds = %11, %_ZL6b3SortP10b3DbvtNodeRS0_.exit
  %14 = phi ptr [ %57, %_ZL6b3SortP10b3DbvtNodeRS0_.exit ], [ %12, %11 ]
  %.0918 = phi ptr [ %.09, %_ZL6b3SortP10b3DbvtNodeRS0_.exit ], [ %.0915, %11 ]
  %.017 = phi i32 [ %56, %_ZL6b3SortP10b3DbvtNodeRS0_.exit ], [ 0, %11 ]
  %15 = getelementptr inbounds nuw i8, ptr %.0918, i64 32
  %16 = load ptr, ptr %15, align 16, !tbaa !46
  %17 = icmp ugt ptr %16, %.0918
  br i1 %17, label %18, label %_ZL6b3SortP10b3DbvtNodeRS0_.exit

18:                                               ; preds = %.lr.ph
  %19 = getelementptr inbounds nuw i8, ptr %16, i64 48
  %20 = load ptr, ptr %19, align 8, !tbaa !32
  %21 = icmp eq ptr %20, %.0918
  %22 = xor i1 %21, true
  %23 = getelementptr inbounds nuw i8, ptr %16, i64 40
  %24 = zext i1 %22 to i64
  %25 = getelementptr inbounds nuw [2 x ptr], ptr %23, i64 0, i64 %24
  %26 = load ptr, ptr %25, align 8, !tbaa !32
  %27 = getelementptr inbounds nuw i8, ptr %16, i64 32
  %28 = load ptr, ptr %27, align 16, !tbaa !46
  %.not.i = icmp eq ptr %28, null
  br i1 %.not.i, label %36, label %29

29:                                               ; preds = %18
  %30 = getelementptr inbounds nuw i8, ptr %28, i64 40
  %31 = getelementptr inbounds nuw i8, ptr %28, i64 48
  %32 = load ptr, ptr %31, align 8, !tbaa !32
  %33 = icmp eq ptr %32, %16
  %34 = zext i1 %33 to i64
  %35 = getelementptr inbounds nuw [2 x ptr], ptr %30, i64 0, i64 %34
  store ptr %.0918, ptr %35, align 8, !tbaa !32
  br label %37

36:                                               ; preds = %18
  store ptr %.0918, ptr %0, align 8, !tbaa !39
  br label %37

37:                                               ; preds = %36, %29
  %38 = getelementptr inbounds nuw i8, ptr %26, i64 32
  store ptr %.0918, ptr %38, align 16, !tbaa !46
  store ptr %.0918, ptr %27, align 16, !tbaa !46
  store ptr %28, ptr %15, align 16, !tbaa !46
  %39 = getelementptr inbounds nuw i8, ptr %.0918, i64 40
  %40 = load ptr, ptr %39, align 8, !tbaa !32
  store ptr %40, ptr %23, align 8, !tbaa !32
  %41 = load ptr, ptr %14, align 8, !tbaa !32
  store ptr %41, ptr %19, align 8, !tbaa !32
  %42 = load ptr, ptr %39, align 8, !tbaa !32
  %43 = getelementptr inbounds nuw i8, ptr %42, i64 32
  store ptr %16, ptr %43, align 16, !tbaa !46
  %44 = load ptr, ptr %14, align 8, !tbaa !32
  %45 = getelementptr inbounds nuw i8, ptr %44, i64 32
  store ptr %16, ptr %45, align 16, !tbaa !46
  %46 = zext i1 %21 to i64
  %47 = getelementptr inbounds nuw [2 x ptr], ptr %39, i64 0, i64 %46
  store ptr %16, ptr %47, align 8, !tbaa !32
  %48 = getelementptr inbounds nuw [2 x ptr], ptr %39, i64 0, i64 %24
  store ptr %26, ptr %48, align 8, !tbaa !32
  call void @llvm.lifetime.start.p0(i64 32, ptr nonnull %3)
  call void @llvm.memcpy.p0.p0.i64(ptr noundef nonnull align 16 dereferenceable(32) %3, ptr noundef nonnull align 16 dereferenceable(32) %16, i64 32, i1 false), !tbaa.struct !59
  tail call void @llvm.memcpy.p0.p0.i64(ptr noundef nonnull align 16 dereferenceable(32) %16, ptr noundef nonnull align 16 dereferenceable(32) %.0918, i64 32, i1 false), !tbaa.struct !59
  call void @llvm.memcpy.p0.p0.i64(ptr noundef nonnull align 16 dereferenceable(32) %.0918, ptr noundef nonnull align 16 dereferenceable(32) %3, i64 32, i1 false), !tbaa.struct !59
  call void @llvm.lifetime.end.p0(i64 32, ptr nonnull %3)
  br label %_ZL6b3SortP10b3DbvtNodeRS0_.exit

_ZL6b3SortP10b3DbvtNodeRS0_.exit:                 ; preds = %.lr.ph, %37
  %.0.i = phi ptr [ %16, %37 ], [ %.0918, %.lr.ph ]
  %49 = getelementptr inbounds nuw i8, ptr %.0.i, i64 40
  %50 = load i32, ptr %10, align 8, !tbaa !27
  %51 = lshr i32 %50, %.017
  %52 = and i32 %51, 1
  %53 = zext nneg i32 %52 to i64
  %54 = getelementptr inbounds nuw [2 x ptr], ptr %49, i64 0, i64 %53
  %55 = add nuw nsw i32 %.017, 1
  %56 = and i32 %55, 31
  %.09 = load ptr, ptr %54, align 8, !tbaa !32
  %57 = getelementptr inbounds nuw i8, ptr %.09, i64 48
  %58 = load ptr, ptr %57, align 8, !tbaa !32
  %.not14 = icmp eq ptr %58, null
  br i1 %.not14, label %_ZN12b3DynamicBvh6updateEP10b3DbvtNodei.exit, label %.lr.ph, !llvm.loop !68

_ZN12b3DynamicBvh6updateEP10b3DbvtNodei.exit:     ; preds = %_ZL6b3SortP10b3DbvtNodeRS0_.exit, %11
  %.09.lcssa = phi ptr [ %.0915, %11 ], [ %.09, %_ZL6b3SortP10b3DbvtNodeRS0_.exit ]
  %59 = tail call fastcc noundef ptr @_ZL12b3RemoveLeafP12b3DynamicBvhP10b3DbvtNode(ptr noundef nonnull align 8 dereferenceable(96) %0, ptr noundef nonnull %.09.lcssa)
  %.not.i13 = icmp eq ptr %59, null
  %60 = load ptr, ptr %0, align 8
  %spec.select = select i1 %.not.i13, ptr null, ptr %60
  tail call fastcc void @_ZL12b3InsertLeafP12b3DynamicBvhP10b3DbvtNodeS2_(ptr noundef nonnull align 8 dereferenceable(96) %0, ptr noundef %spec.select, ptr noundef nonnull %.09.lcssa)
  %61 = load i32, ptr %10, align 8, !tbaa !27
  %62 = add i32 %61, 1
  store i32 %62, ptr %10, align 8, !tbaa !27
  %63 = add nsw i32 %.1, -1
  %.not = icmp eq i32 %63, 0
  br i1 %.not, label %.loopexit, label %11, !llvm.loop !69

.loopexit:                                        ; preds = %_ZN12b3DynamicBvh6updateEP10b3DbvtNodei.exit, %2
  ret void
}